target datalayout = "e-m:e-p270:32:32-p271:32:32-p272:64:64-i64:64-i128:128-f80:128-n8:16:32:64-S128"
target triple = "x86_64-pc-linux-gnu"

%struct.ossl_passphrase_data_st = type { i32, %union.anon, i8, ptr, i64 }
%union.anon = type { %struct.anon }
%struct.anon = type { ptr, i64 }
%struct.ossl_store_ctx_st = type { ptr, ptr, ptr, ptr, ptr, i32, ptr, i32, i32, ptr, %struct.ossl_passphrase_data_st }
%struct.ossl_store_loader_st = type { ptr, ptr, ptr, ptr, ptr, ptr, ptr, ptr, ptr, ptr, ptr, ptr, ptr, i32, ptr, ptr, %struct.CRYPTO_REF_COUNT, ptr, ptr, ptr, ptr, ptr, ptr, ptr, ptr, ptr, ptr }
%struct.CRYPTO_REF_COUNT = type { i32 }
%struct.ossl_param_st = type { ptr, i32, ptr, i64, i64 }
%struct.__va_list_tag = type { i32, i32, ptr, ptr }

@.str.3 = private unnamed_addr constant [11 x i8] c"use_secmem\00", align 1

; Function Attrs: nounwind uwtable
define i32 @OSSL_STORE_vctrl(ptr noundef %0, i32 noundef %1, ptr noundef %2) #0 {
  %4 = alloca i32, align 4
  %5 = alloca ptr, align 8
  %6 = alloca i32, align 4
  %7 = alloca ptr, align 8
  %8 = alloca [2 x %struct.ossl_param_st], align 16
  %9 = alloca i32, align 4
  %10 = alloca %struct.ossl_param_st, align 8
  store ptr %0, ptr %5, align 8, !tbaa !19
  store i32 %1, ptr %6, align 4, !tbaa !21
  store ptr %2, ptr %7, align 8, !tbaa !52
  %11 = load ptr, ptr %5, align 8, !tbaa !19
  %12 = getelementptr inbounds nuw %struct.ossl_store_ctx_st, ptr %11, i32 0, i32 1
  %13 = load ptr, ptr %12, align 8, !tbaa !42
  %14 = icmp ne ptr %13, null
  br i1 %14, label %15, label %56

15:                                               ; preds = %3
  %16 = load ptr, ptr %5, align 8, !tbaa !19
  %17 = getelementptr inbounds nuw %struct.ossl_store_ctx_st, ptr %16, i32 0, i32 1
  %18 = load ptr, ptr %17, align 8, !tbaa !42
  %19 = getelementptr inbounds nuw %struct.ossl_store_loader_st, ptr %18, i32 0, i32 20
  %20 = load ptr, ptr %19, align 8, !tbaa !48
  %21 = icmp ne ptr %20, null
  br i1 %21, label %22, label %55

22:                                               ; preds = %15
  call void @llvm.lifetime.start.p0(i64 80, ptr %8) #8
  call void @llvm.memset.p0.i64(ptr align 16 %8, i8 0, i64 80, i1 false)
  %23 = load i32, ptr %6, align 4, !tbaa !21
  switch i32 %23, label %43 [
    i32 1, label %24
  ]

24:                                               ; preds = %22
  call void @llvm.lifetime.start.p0(i64 4, ptr %9) #8
  %25 = load ptr, ptr %7, align 8, !tbaa !52
  %26 = getelementptr inbounds nuw %struct.__va_list_tag, ptr %25, i32 0, i32 0
  %27 = load i32, ptr %26, align 8
  %28 = icmp ule i32 %27, 40
  br i1 %28, label %29, label %34

29:                                               ; preds = %24
  %30 = getelementptr inbounds nuw %struct.__va_list_tag, ptr %25, i32 0, i32 3
  %31 = load ptr, ptr %30, align 8
  %32 = getelementptr i8, ptr %31, i32 %27
  %33 = add i32 %27, 8
  store i32 %33, ptr %26, align 8
  br label %38

34:                                               ; preds = %24
  %35 = getelementptr inbounds nuw %struct.__va_list_tag, ptr %25, i32 0, i32 2
  %36 = load ptr, ptr %35, align 8
  %37 = getelementptr i8, ptr %36, i32 8
  store ptr %37, ptr %35, align 8
  br label %38

38:                                               ; preds = %34, %29
  %39 = phi ptr [ %32, %29 ], [ %36, %34 ]
  %40 = load ptr, ptr %39, align 8, !tbaa !54
  %41 = load i32, ptr %40, align 4, !tbaa !21
  store i32 %41, ptr %9, align 4, !tbaa !21
  %42 = getelementptr inbounds [2 x %struct.ossl_param_st], ptr %8, i64 0, i64 0
  call void @llvm.lifetime.start.p0(i64 40, ptr %10) #8
  call void @OSSL_PARAM_construct_int(ptr dead_on_unwind writable sret(%struct.ossl_param_st) align 8 %10, ptr noundef @.str.3, ptr noundef %9)
  call void @llvm.memcpy.p0.p0.i64(ptr align 16 %42, ptr align 8 %10, i64 40, i1 false), !tbaa.struct !49
  call void @llvm.lifetime.end.p0(i64 40, ptr %10) #8
  call void @llvm.lifetime.end.p0(i64 4, ptr %9) #8
  br label %44

43:                                               ; preds = %22
  br label %44

44:                                               ; preds = %43, %38
  %45 = load ptr, ptr %5, align 8, !tbaa !19
  %46 = getelementptr inbounds nuw %struct.ossl_store_ctx_st, ptr %45, i32 0, i32 1
  %47 = load ptr, ptr %46, align 8, !tbaa !42
  %48 = getelementptr inbounds nuw %struct.ossl_store_loader_st, ptr %47, i32 0, i32 20
  %49 = load ptr, ptr %48, align 8, !tbaa !48
  %50 = load ptr, ptr %5, align 8, !tbaa !19
  %51 = getelementptr inbounds nuw %struct.ossl_store_ctx_st, ptr %50, i32 0, i32 2
  %52 = load ptr, ptr %51, align 8, !tbaa !44
  %53 = getelementptr inbounds [2 x %struct.ossl_param_st], ptr %8, i64 0, i64 0
  %54 = call i32 %49(ptr noundef %52, ptr noundef %53)
  store i32 %54, ptr %4, align 4
  call void @llvm.lifetime.end.p0(i64 80, ptr %8) #8
  br label %77

55:                                               ; preds = %15
  br label %76

56:                                               ; preds = %3
  %57 = load ptr, ptr %5, align 8, !tbaa !19
  %58 = getelementptr inbounds nuw %struct.ossl_store_ctx_st, ptr %57, i32 0, i32 0
  %59 = load ptr, ptr %58, align 8, !tbaa !43
  %60 = getelementptr inbounds nuw %struct.ossl_store_loader_st, ptr %59, i32 0, i32 4
  %61 = load ptr, ptr %60, align 8, !tbaa !56
  %62 = icmp ne ptr %61, null
  br i1 %62, label %63, label %75

63:                                               ; preds = %56
  %64 = load ptr, ptr %5, align 8, !tbaa !19
  %65 = getelementptr inbounds nuw %struct.ossl_store_ctx_st, ptr %64, i32 0, i32 0
  %66 = load ptr, ptr %65, align 8, !tbaa !43
  %67 = getelementptr inbounds nuw %struct.ossl_store_loader_st, ptr %66, i32 0, i32 4
  %68 = load ptr, ptr %67, align 8, !tbaa !56
  %69 = load ptr, ptr %5, align 8, !tbaa !19
  %70 = getelementptr inbounds nuw %struct.ossl_store_ctx_st, ptr %69, i32 0, i32 2
  %71 = load ptr, ptr %70, align 8, !tbaa !44
  %72 = load i32, ptr %6, align 4, !tbaa !21
  %73 = load ptr, ptr %7, align 8, !tbaa !52
  %74 = call i32 %68(ptr noundef %71, i32 noundef %72, ptr noundef %73)
  store i32 %74, ptr %4, align 4
  br label %77

75:                                               ; preds = %56
  br label %76

76:                                               ; preds = %75, %55
  store i32 1, ptr %4, align 4
  br label %77

77:                                               ; preds = %76, %63, %44
  %78 = load i32, ptr %4, align 4
  ret i32 %78
}