; Function Attrs: nounwind uwtable
define i32 @OSSL_STORE_vctrl(ptr noundef readonly captures(none) %0, i32 noundef %1, ptr noundef %2) local_unnamed_addr #0 {
  %4 = alloca [2 x %struct.ossl_param_st], align 16
  %5 = alloca i32, align 4
  %6 = getelementptr inbounds nuw i8, ptr %0, i64 8
  %7 = load ptr, ptr %6, align 8, !tbaa !33
  %.not = icmp eq ptr %7, null
  br i1 %.not, label %34, label %8

8:                                                ; preds = %3
  %9 = getelementptr inbounds nuw i8, ptr %7, i64 160
  %10 = load ptr, ptr %9, align 8, !tbaa !18
  %.not15 = icmp eq ptr %10, null
  br i1 %.not15, label %42, label %11

11:                                               ; preds = %8
  call void @llvm.lifetime.start.p0(i64 80, ptr nonnull %4) #9
  call void @llvm.memset.p0.i64(ptr noundef nonnull align 16 dereferenceable(80) %4, i8 0, i64 80, i1 false)
  %cond = icmp eq i32 %1, 1
  br i1 %cond, label %12, label %29

12:                                               ; preds = %11
  call void @llvm.lifetime.start.p0(i64 4, ptr nonnull %5) #9
  %13 = load i32, ptr %2, align 8
  %14 = icmp ult i32 %13, 41
  br i1 %14, label %15, label %21

15:                                               ; preds = %12
  %16 = getelementptr inbounds nuw i8, ptr %2, i64 16
  %17 = load ptr, ptr %16, align 8
  %18 = zext nneg i32 %13 to i64
  %19 = getelementptr i8, ptr %17, i64 %18
  %20 = add nuw nsw i32 %13, 8
  store i32 %20, ptr %2, align 8
  br label %25

21:                                               ; preds = %12
  %22 = getelementptr inbounds nuw i8, ptr %2, i64 8
  %23 = load ptr, ptr %22, align 8
  %24 = getelementptr i8, ptr %23, i64 8
  store ptr %24, ptr %22, align 8
  br label %25

25:                                               ; preds = %21, %15
  %26 = phi ptr [ %19, %15 ], [ %23, %21 ]
  %27 = load ptr, ptr %26, align 8, !tbaa !41
  %28 = load i32, ptr %27, align 4, !tbaa !20
  store i32 %28, ptr %5, align 4, !tbaa !20
  call void @OSSL_PARAM_construct_int(ptr dead_on_unwind nonnull writable sret(%struct.ossl_param_st) align 8 %4, ptr noundef nonnull @.str.3, ptr noundef nonnull %5) #9
  call void @llvm.lifetime.end.p0(i64 4, ptr nonnull %5) #9
  %.pre = load ptr, ptr %6, align 8, !tbaa !33
  %.phi.trans.insert = getelementptr inbounds nuw i8, ptr %.pre, i64 160
  %.pre16 = load ptr, ptr %.phi.trans.insert, align 8, !tbaa !18
  br label %29

29:                                               ; preds = %11, %25
  %30 = phi ptr [ %10, %11 ], [ %.pre16, %25 ]
  %31 = getelementptr inbounds nuw i8, ptr %0, i64 16
  %32 = load ptr, ptr %31, align 8, !tbaa !35
  %33 = call i32 %30(ptr noundef %32, ptr noundef nonnull %4) #9
  call void @llvm.lifetime.end.p0(i64 80, ptr nonnull %4) #9
  br label %42

34:                                               ; preds = %3
  %35 = load ptr, ptr %0, align 8, !tbaa !34
  %36 = getelementptr inbounds nuw i8, ptr %35, i64 32
  %37 = load ptr, ptr %36, align 8, !tbaa !43
  %.not14 = icmp eq ptr %37, null
  br i1 %.not14, label %42, label %38

38:                                               ; preds = %34
  %39 = getelementptr inbounds nuw i8, ptr %0, i64 16
  %40 = load ptr, ptr %39, align 8, !tbaa !35
  %41 = tail call i32 %37(ptr noundef %40, i32 noundef %1, ptr noundef %2) #9
  br label %42

42:                                               ; preds = %8, %34, %38, %29
  %.0 = phi i32 [ %33, %29 ], [ %41, %38 ], [ 1, %34 ], [ 1, %8 ]
  ret i32 %.0
}